target datalayout = "e-m:e-p270:32:32-p271:32:32-p272:64:64-i64:64-i128:128-f80:128-n8:16:32:64-S128"
target triple = "x86_64-pc-linux-gnu"

%struct.slurm_conf_t = type { i64, ptr, i16, ptr, ptr, ptr, ptr, ptr, i16, ptr, ptr, ptr, ptr, ptr, ptr, ptr, i16, ptr, ptr, ptr, ptr, i16, ptr, ptr, ptr, i64, ptr, ptr, ptr, ptr, i16, ptr, ptr, i16, i32, ptr, i32, ptr, i32, i32, ptr, ptr, i64, i64, ptr, i16, i16, ptr, i32, i32, ptr, i32, ptr, i32, i16, i16, i16, ptr, i16, i16, ptr, ptr, i32, i16, i16, ptr, i32, i16, ptr, ptr, ptr, ptr, i16, ptr, ptr, ptr, ptr, i32, ptr, ptr, ptr, ptr, i16, i16, ptr, i32, i32, i32, i16, i16, ptr, ptr, i16, ptr, ptr, i32, i32, i32, i32, i32, i64, i32, i32, i16, ptr, ptr, i32, ptr, ptr, ptr, i16, i32, ptr, ptr, i16, ptr, ptr, i32, i16, ptr, ptr, ptr, ptr, i32, i32, i16, i16, i32, ptr, i16, ptr, i32, i32, i32, i32, i32, i32, ptr, i16, ptr, ptr, i32, i16, ptr, i32, i16, i16, ptr, ptr, ptr, i16, ptr, ptr, ptr, ptr, i16, i16, ptr, i16, ptr, i16, ptr, i16, ptr, i16, ptr, ptr, ptr, ptr, i16, ptr, ptr, ptr, i32, ptr, i32, ptr, ptr, i16, ptr, ptr, i32, i16, ptr, ptr, i16, i16, ptr, i16, ptr, ptr, ptr, i32, ptr, i16, i16, ptr, ptr, ptr, ptr, ptr, ptr, ptr, ptr, i16, i32, i16, ptr, ptr, ptr, ptr, i32, ptr, ptr, ptr, i16, ptr, ptr, ptr, i16, ptr, i16, ptr, i16, i16, ptr }
%struct.http_parser_url = type { i16, i16, [7 x %struct.anon] }
%struct.anon = type { i16, i16 }
%struct.parsed_host_port_t = type { ptr, ptr }

@slurm_conf = external global %struct.slurm_conf_t, align 8
@.str.13 = private unnamed_addr constant [30 x i8] c"%s: invalid empty host string\00", align 1
@__func__.parse_host_port = private unnamed_addr constant [16 x i8] c"parse_host_port\00", align 1
@.str.14 = private unnamed_addr constant [7 x i8] c"http.c\00", align 1
@.str.15 = private unnamed_addr constant [3 x i8] c"::\00", align 1
@.str.16 = private unnamed_addr constant [28 x i8] c"%s: invalid host string: %s\00", align 1
@.str.17 = private unnamed_addr constant [29 x i8] c"NET: %s: parsed: %s -> %s:%s\00", align 1

; Function Attrs: nounwind uwtable
define internal void @_http_parser_url_init(ptr noundef %0) #0 {
  %2 = alloca ptr, align 8
  store ptr %0, ptr %2, align 8
  %3 = load ptr, ptr %2, align 8
  call void @http_parser_url_init(ptr noundef %3)
  ret void
}

; Function Attrs: nounwind uwtable
define dso_local ptr @parse_host_port(ptr noundef %0) #0 {
  %2 = alloca ptr, align 8
  %3 = alloca ptr, align 8
  %4 = alloca %struct.http_parser_url, align 2
  %5 = alloca ptr, align 8
  %6 = alloca i32, align 4
  %7 = alloca ptr, align 8
  store ptr %0, ptr %3, align 8
  call void @llvm.lifetime.start.p0(i64 32, ptr %4) #8
  call void @llvm.lifetime.start.p0(i64 8, ptr %5) #8
  %8 = load ptr, ptr %3, align 8
  %9 = icmp ne ptr %8, null
  br i1 %9, label %10, label %16

10:                                               ; preds = %1
  %11 = load ptr, ptr %3, align 8
  %12 = getelementptr inbounds i8, ptr %11, i64 0
  %13 = load i8, ptr %12, align 1
  %14 = sext i8 %13 to i32
  %15 = icmp eq i32 %14, 0
  br i1 %15, label %16, label %18

16:                                               ; preds = %10, %1
  %17 = call i32 (ptr, ...) @error(ptr noundef @.str.13, ptr noundef @__func__.parse_host_port)
  store ptr null, ptr %2, align 8
  store i32 1, ptr %6, align 4
  br label %146

18:                                               ; preds = %10
  %19 = load ptr, ptr %3, align 8
  %20 = getelementptr inbounds i8, ptr %19, i64 0
  %21 = load i8, ptr %20, align 1
  %22 = sext i8 %21 to i32
  %23 = icmp eq i32 %22, 58
  br i1 %23, label %24, label %55

24:                                               ; preds = %18
  call void @llvm.lifetime.start.p0(i64 8, ptr %7) #8
  %25 = load ptr, ptr %3, align 8
  %26 = call ptr @xstrdup(ptr noundef %25)
  store ptr %26, ptr %7, align 8
  %27 = load ptr, ptr %7, align 8
  %28 = getelementptr inbounds i8, ptr %27, i64 0
  store i8 32, ptr %28, align 1
  %29 = load ptr, ptr %7, align 8
  %30 = getelementptr inbounds i8, ptr %29, i64 1
  %31 = load i8, ptr %30, align 1
  %32 = sext i8 %31 to i32
  %33 = icmp eq i32 %32, 58
  br i1 %33, label %34, label %45

34:                                               ; preds = %24
  %35 = load ptr, ptr %7, align 8
  %36 = getelementptr inbounds i8, ptr %35, i64 2
  %37 = load i8, ptr %36, align 1
  %38 = sext i8 %37 to i32
  %39 = icmp eq i32 %38, 58
  br i1 %39, label %40, label %45

40:                                               ; preds = %34
  %41 = load ptr, ptr %7, align 8
  %42 = getelementptr inbounds i8, ptr %41, i64 1
  store i8 32, ptr %42, align 1
  %43 = load ptr, ptr %7, align 8
  %44 = getelementptr inbounds i8, ptr %43, i64 2
  store i8 32, ptr %44, align 1
  br label %45

45:                                               ; preds = %40, %34, %24
  %46 = load ptr, ptr %7, align 8
  call void @xstrtrim(ptr noundef %46)
  %47 = call ptr @slurm_xcalloc(i64 noundef 1, i64 noundef 16, i1 noundef zeroext true, i1 noundef zeroext false, ptr noundef @.str.14, i32 noundef 844, ptr noundef @__func__.parse_host_port)
  store ptr %47, ptr %5, align 8
  %48 = call ptr @xstrdup(ptr noundef @.str.15)
  %49 = load ptr, ptr %5, align 8
  %50 = getelementptr inbounds nuw %struct.parsed_host_port_t, ptr %49, i32 0, i32 0
  store ptr %48, ptr %50, align 8
  %51 = load ptr, ptr %7, align 8
  %52 = load ptr, ptr %5, align 8
  %53 = getelementptr inbounds nuw %struct.parsed_host_port_t, ptr %52, i32 0, i32 1
  store ptr %51, ptr %53, align 8
  %54 = load ptr, ptr %5, align 8
  store ptr %54, ptr %2, align 8
  store i32 1, ptr %6, align 4
  call void @llvm.lifetime.end.p0(i64 8, ptr %7) #8
  br label %146

55:                                               ; preds = %18
  call void @_http_parser_url_init(ptr noundef %4)
  %56 = load ptr, ptr %3, align 8
  %57 = load ptr, ptr %3, align 8
  %58 = call i64 @strlen(ptr noundef %57) #9
  %59 = call i32 @http_parser_parse_url(ptr noundef %56, i64 noundef %58, i32 noundef 1, ptr noundef %4)
  %60 = icmp ne i32 %59, 0
  br i1 %60, label %61, label %64

61:                                               ; preds = %55
  %62 = load ptr, ptr %3, align 8
  %63 = call i32 (ptr, ...) @error(ptr noundef @.str.16, ptr noundef @__func__.parse_host_port, ptr noundef %62)
  store ptr null, ptr %2, align 8
  store i32 1, ptr %6, align 4
  br label %146

64:                                               ; preds = %55
  %65 = call ptr @slurm_xcalloc(i64 noundef 1, i64 noundef 16, i1 noundef zeroext true, i1 noundef zeroext false, ptr noundef @.str.14, i32 noundef 858, ptr noundef @__func__.parse_host_port)
  store ptr %65, ptr %5, align 8
  %66 = getelementptr inbounds nuw %struct.http_parser_url, ptr %4, i32 0, i32 0
  %67 = load i16, ptr %66, align 2
  %68 = zext i16 %67 to i32
  %69 = and i32 %68, 2
  %70 = icmp ne i32 %69, 0
  br i1 %70, label %71, label %88

71:                                               ; preds = %64
  %72 = load ptr, ptr %3, align 8
  %73 = getelementptr inbounds nuw %struct.http_parser_url, ptr %4, i32 0, i32 2
  %74 = getelementptr inbounds [7 x %struct.anon], ptr %73, i64 0, i64 1
  %75 = getelementptr inbounds nuw %struct.anon, ptr %74, i32 0, i32 0
  %76 = load i16, ptr %75, align 2
  %77 = zext i16 %76 to i32
  %78 = sext i32 %77 to i64
  %79 = getelementptr inbounds i8, ptr %72, i64 %78
  %80 = getelementptr inbounds nuw %struct.http_parser_url, ptr %4, i32 0, i32 2
  %81 = getelementptr inbounds [7 x %struct.anon], ptr %80, i64 0, i64 1
  %82 = getelementptr inbounds nuw %struct.anon, ptr %81, i32 0, i32 1
  %83 = load i16, ptr %82, align 2
  %84 = zext i16 %83 to i64
  %85 = call ptr @xstrndup(ptr noundef %79, i64 noundef %84)
  %86 = load ptr, ptr %5, align 8
  %87 = getelementptr inbounds nuw %struct.parsed_host_port_t, ptr %86, i32 0, i32 0
  store ptr %85, ptr %87, align 8
  br label %88

88:                                               ; preds = %71, %64
  %89 = getelementptr inbounds nuw %struct.http_parser_url, ptr %4, i32 0, i32 0
  %90 = load i16, ptr %89, align 2
  %91 = zext i16 %90 to i32
  %92 = and i32 %91, 4
  %93 = icmp ne i32 %92, 0
  br i1 %93, label %94, label %111

94:                                               ; preds = %88
  %95 = load ptr, ptr %3, align 8
  %96 = getelementptr inbounds nuw %struct.http_parser_url, ptr %4, i32 0, i32 2
  %97 = getelementptr inbounds [7 x %struct.anon], ptr %96, i64 0, i64 2
  %98 = getelementptr inbounds nuw %struct.anon, ptr %97, i32 0, i32 0
  %99 = load i16, ptr %98, align 2
  %100 = zext i16 %99 to i32
  %101 = sext i32 %100 to i64
  %102 = getelementptr inbounds i8, ptr %95, i64 %101
  %103 = getelementptr inbounds nuw %struct.http_parser_url, ptr %4, i32 0, i32 2
  %104 = getelementptr inbounds [7 x %struct.anon], ptr %103, i64 0, i64 2
  %105 = getelementptr inbounds nuw %struct.anon, ptr %104, i32 0, i32 1
  %106 = load i16, ptr %105, align 2
  %107 = zext i16 %106 to i64
  %108 = call ptr @xstrndup(ptr noundef %102, i64 noundef %107)
  %109 = load ptr, ptr %5, align 8
  %110 = getelementptr inbounds nuw %struct.parsed_host_port_t, ptr %109, i32 0, i32 1
  store ptr %108, ptr %110, align 8
  br label %111

111:                                              ; preds = %94, %88
  %112 = load ptr, ptr %5, align 8
  %113 = getelementptr inbounds nuw %struct.parsed_host_port_t, ptr %112, i32 0, i32 0
  %114 = load ptr, ptr %113, align 8
  %115 = icmp ne ptr %114, null
  br i1 %115, label %116, label %144

116:                                              ; preds = %111
  %117 = load ptr, ptr %5, align 8
  %118 = getelementptr inbounds nuw %struct.parsed_host_port_t, ptr %117, i32 0, i32 1
  %119 = load ptr, ptr %118, align 8
  %120 = icmp ne ptr %119, null
  br i1 %120, label %121, label %144

121:                                              ; preds = %116
  br label %122

122:                                              ; preds = %121
  %123 = load i64, ptr getelementptr inbounds nuw (%struct.slurm_conf_t, ptr @slurm_conf, i32 0, i32 42), align 8
  %124 = and i64 %123, 1024
  %125 = icmp ne i64 %124, 0
  br i1 %125, label %126, label %141

126:                                              ; preds = %122
  br label %127

127:                                              ; preds = %126
  %128 = call i32 @get_log_level()
  %129 = icmp sge i32 %128, 4
  br i1 %129, label %130, label %138

130:                                              ; preds = %127
  %131 = load ptr, ptr %3, align 8
  %132 = load ptr, ptr %5, align 8
  %133 = getelementptr inbounds nuw %struct.parsed_host_port_t, ptr %132, i32 0, i32 0
  %134 = load ptr, ptr %133, align 8
  %135 = load ptr, ptr %5, align 8
  %136 = getelementptr inbounds nuw %struct.parsed_host_port_t, ptr %135, i32 0, i32 1
  %137 = load ptr, ptr %136, align 8
  call void (i32, ptr, ...) @log_var(i32 noundef 4, ptr noundef @.str.17, ptr noundef @__func__.parse_host_port, ptr noundef %131, ptr noundef %134, ptr noundef %137)
  br label %138

138:                                              ; preds = %130, %127
  br label %139

139:                                              ; preds = %138
  br label %140

140:                                              ; preds = %139
  br label %141

141:                                              ; preds = %140, %122
  br label %142

142:                                              ; preds = %141
  br label %143

143:                                              ; preds = %142
  br label %144

144:                                              ; preds = %143, %116, %111
  %145 = load ptr, ptr %5, align 8
  store ptr %145, ptr %2, align 8
  store i32 1, ptr %6, align 4
  br label %146

146:                                              ; preds = %144, %61, %45, %16
  call void @llvm.lifetime.end.p0(i64 8, ptr %5) #8
  call void @llvm.lifetime.end.p0(i64 32, ptr %4) #8
  %147 = load ptr, ptr %2, align 8
  ret ptr %147
}