; Function Attrs: nounwind uwtable
define dso_local ptr @parse_host_port(ptr noundef %0) local_unnamed_addr #0 {
  %2 = alloca %struct.http_parser_url, align 2
  call void @llvm.lifetime.start.p0(i64 32, ptr nonnull %2) #8
  %.not = icmp eq ptr %0, null
  br i1 %.not, label %5, label %3

3:                                                ; preds = %1
  %4 = load i8, ptr %0, align 1
  switch i8 %4, label %21 [
    i8 0, label %5
    i8 58, label %7
  ]

5:                                                ; preds = %3, %1
  %6 = tail call i32 (ptr, ...) @error(ptr noundef nonnull @.str.13, ptr noundef nonnull @__func__.parse_host_port) #8
  br label %66

7:                                                ; preds = %3
  %8 = tail call ptr @xstrdup(ptr noundef nonnull %0) #8
  store i8 32, ptr %8, align 1
  %9 = getelementptr inbounds nuw i8, ptr %8, i64 1
  %10 = load i8, ptr %9, align 1
  %11 = icmp eq i8 %10, 58
  br i1 %11, label %12, label %17

12:                                               ; preds = %7
  %13 = getelementptr inbounds nuw i8, ptr %8, i64 2
  %14 = load i8, ptr %13, align 1
  %15 = icmp eq i8 %14, 58
  br i1 %15, label %16, label %17

16:                                               ; preds = %12
  store i8 32, ptr %9, align 1
  store i8 32, ptr %13, align 1
  br label %17

17:                                               ; preds = %16, %12, %7
  tail call void @xstrtrim(ptr noundef nonnull %8) #8
  %18 = tail call ptr @slurm_xcalloc(i64 noundef 1, i64 noundef 16, i1 noundef zeroext true, i1 noundef zeroext false, ptr noundef nonnull @.str.14, i32 noundef 844, ptr noundef nonnull @__func__.parse_host_port) #8
  %19 = tail call ptr @xstrdup(ptr noundef nonnull @.str.15) #8
  store ptr %19, ptr %18, align 8
  %20 = getelementptr inbounds nuw i8, ptr %18, i64 8
  store ptr %8, ptr %20, align 8
  br label %66

21:                                               ; preds = %3
  call void @http_parser_url_init(ptr noundef nonnull %2) #8
  %22 = call i64 @strlen(ptr noundef nonnull dereferenceable(1) %0) #9
  %23 = call i32 @http_parser_parse_url(ptr noundef nonnull %0, i64 noundef %22, i32 noundef 1, ptr noundef nonnull %2) #8
  %.not30 = icmp eq i32 %23, 0
  br i1 %.not30, label %26, label %24

24:                                               ; preds = %21
  %25 = call i32 (ptr, ...) @error(ptr noundef nonnull @.str.16, ptr noundef nonnull @__func__.parse_host_port, ptr noundef nonnull %0) #8
  br label %66

26:                                               ; preds = %21
  %27 = call ptr @slurm_xcalloc(i64 noundef 1, i64 noundef 16, i1 noundef zeroext true, i1 noundef zeroext false, ptr noundef nonnull @.str.14, i32 noundef 858, ptr noundef nonnull @__func__.parse_host_port) #8
  %28 = load i16, ptr %2, align 2
  %29 = and i16 %28, 2
  %.not31 = icmp eq i16 %29, 0
  br i1 %.not31, label %39, label %30

30:                                               ; preds = %26
  %31 = getelementptr inbounds nuw i8, ptr %2, i64 8
  %32 = load i16, ptr %31, align 2
  %33 = zext i16 %32 to i64
  %34 = getelementptr inbounds nuw i8, ptr %0, i64 %33
  %35 = getelementptr inbounds nuw i8, ptr %2, i64 10
  %36 = load i16, ptr %35, align 2
  %37 = zext i16 %36 to i64
  %38 = call ptr @xstrndup(ptr noundef nonnull %34, i64 noundef %37) #8
  store ptr %38, ptr %27, align 8
  %.pre = load i16, ptr %2, align 2
  br label %39

39:                                               ; preds = %30, %26
  %40 = phi i16 [ %.pre, %30 ], [ %28, %26 ]
  %41 = and i16 %40, 4
  %.not32 = icmp eq i16 %41, 0
  br i1 %.not32, label %52, label %42

42:                                               ; preds = %39
  %43 = getelementptr inbounds nuw i8, ptr %2, i64 12
  %44 = load i16, ptr %43, align 2
  %45 = zext i16 %44 to i64
  %46 = getelementptr inbounds nuw i8, ptr %0, i64 %45
  %47 = getelementptr inbounds nuw i8, ptr %2, i64 14
  %48 = load i16, ptr %47, align 2
  %49 = zext i16 %48 to i64
  %50 = call ptr @xstrndup(ptr noundef nonnull %46, i64 noundef %49) #8
  %51 = getelementptr inbounds nuw i8, ptr %27, i64 8
  store ptr %50, ptr %51, align 8
  br label %52

52:                                               ; preds = %42, %39
  %53 = load ptr, ptr %27, align 8
  %.not33 = icmp eq ptr %53, null
  br i1 %.not33, label %66, label %54

54:                                               ; preds = %52
  %55 = getelementptr inbounds nuw i8, ptr %27, i64 8
  %56 = load ptr, ptr %55, align 8
  %.not34 = icmp eq ptr %56, null
  br i1 %.not34, label %66, label %57

57:                                               ; preds = %54
  %58 = load i64, ptr getelementptr inbounds nuw (i8, ptr @slurm_conf, i64 320), align 8
  %59 = and i64 %58, 1024
  %.not35 = icmp eq i64 %59, 0
  br i1 %.not35, label %66, label %60

60:                                               ; preds = %57
  %61 = call i32 @get_log_level() #8
  %62 = icmp sgt i32 %61, 3
  br i1 %62, label %63, label %66

63:                                               ; preds = %60
  %64 = load ptr, ptr %27, align 8
  %65 = load ptr, ptr %55, align 8
  call void (i32, ptr, ...) @log_var(i32 noundef 4, ptr noundef nonnull @.str.17, ptr noundef nonnull @__func__.parse_host_port, ptr noundef nonnull %0, ptr noundef %64, ptr noundef %65) #8
  br label %66

66:                                               ; preds = %52, %54, %60, %63, %57, %24, %17, %5
  %.0 = phi ptr [ null, %5 ], [ %18, %17 ], [ null, %24 ], [ %27, %57 ], [ %27, %63 ], [ %27, %60 ], [ %27, %54 ], [ %27, %52 ]
  call void @llvm.lifetime.end.p0(i64 32, ptr nonnull %2) #8
  ret ptr %.0
}